target datalayout = "e-m:e-p270:32:32-p271:32:32-p272:64:64-i64:64-i128:128-f80:128-n8:16:32:64-S128"
target triple = "x86_64-pc-linux-gnu"

%struct.SN_env = type { ptr, i32, i32, i32, i32, i32, ptr, ptr }

; Function Attrs: nounwind uwtable
define internal i32 @r_verb(ptr noundef %0) #0 {
  %2 = alloca i32, align 4
  %3 = alloca ptr, align 8
  %4 = alloca i32, align 4
  %5 = alloca i32, align 4
  %6 = alloca i32, align 4
  %7 = alloca i32, align 4
  %8 = alloca i32, align 4
  store ptr %0, ptr %3, align 8
  call void @llvm.lifetime.start.p0(i64 4, ptr %4) #3
  %9 = load ptr, ptr %3, align 8
  %10 = getelementptr inbounds nuw %struct.SN_env, ptr %9, i32 0, i32 1
  %11 = load i32, ptr %10, align 8
  %12 = load ptr, ptr %3, align 8
  %13 = getelementptr inbounds nuw %struct.SN_env, ptr %12, i32 0, i32 5
  store i32 %11, ptr %13, align 8
  %14 = load ptr, ptr %3, align 8
  %15 = getelementptr inbounds nuw %struct.SN_env, ptr %14, i32 0, i32 1
  %16 = load i32, ptr %15, align 8
  %17 = load ptr, ptr %3, align 8
  %18 = getelementptr inbounds nuw %struct.SN_env, ptr %17, i32 0, i32 3
  %19 = load i32, ptr %18, align 8
  %20 = icmp sle i32 %16, %19
  br i1 %20, label %51, label %21

21:                                               ; preds = %1
  %22 = load ptr, ptr %3, align 8
  %23 = getelementptr inbounds nuw %struct.SN_env, ptr %22, i32 0, i32 0
  %24 = load ptr, ptr %23, align 8
  %25 = load ptr, ptr %3, align 8
  %26 = getelementptr inbounds nuw %struct.SN_env, ptr %25, i32 0, i32 1
  %27 = load i32, ptr %26, align 8
  %28 = sub i32 %27, 1
  %29 = sext i32 %28 to i64
  %30 = getelementptr inbounds i8, ptr %24, i64 %29
  %31 = load i8, ptr %30, align 1
  %32 = zext i8 %31 to i32
  %33 = ashr i32 %32, 5
  %34 = icmp ne i32 %33, 6
  br i1 %34, label %51, label %35

35:                                               ; preds = %21
  %36 = load ptr, ptr %3, align 8
  %37 = getelementptr inbounds nuw %struct.SN_env, ptr %36, i32 0, i32 0
  %38 = load ptr, ptr %37, align 8
  %39 = load ptr, ptr %3, align 8
  %40 = getelementptr inbounds nuw %struct.SN_env, ptr %39, i32 0, i32 1
  %41 = load i32, ptr %40, align 8
  %42 = sub i32 %41, 1
  %43 = sext i32 %42 to i64
  %44 = getelementptr inbounds i8, ptr %38, i64 %43
  %45 = load i8, ptr %44, align 1
  %46 = zext i8 %45 to i32
  %47 = and i32 %46, 31
  %48 = ashr i32 51443235, %47
  %49 = and i32 %48, 1
  %50 = icmp ne i32 %49, 0
  br i1 %50, label %52, label %51

51:                                               ; preds = %35, %21, %1
  store i32 0, ptr %2, align 4
  store i32 1, ptr %5, align 4
  br label %159

52:                                               ; preds = %35
  %53 = load ptr, ptr %3, align 8
  %54 = call i32 @find_among_b(ptr noundef %53, ptr noundef @a_4, i32 noundef 46)
  store i32 %54, ptr %4, align 4
  %55 = load i32, ptr %4, align 4
  %56 = icmp ne i32 %55, 0
  br i1 %56, label %58, label %57

57:                                               ; preds = %52
  store i32 0, ptr %2, align 4
  store i32 1, ptr %5, align 4
  br label %159

58:                                               ; preds = %52
  %59 = load ptr, ptr %3, align 8
  %60 = getelementptr inbounds nuw %struct.SN_env, ptr %59, i32 0, i32 1
  %61 = load i32, ptr %60, align 8
  %62 = load ptr, ptr %3, align 8
  %63 = getelementptr inbounds nuw %struct.SN_env, ptr %62, i32 0, i32 4
  store i32 %61, ptr %63, align 4
  %64 = load i32, ptr %4, align 4
  switch i32 %64, label %158 [
    i32 1, label %65
    i32 2, label %147
  ]

65:                                               ; preds = %58
  call void @llvm.lifetime.start.p0(i64 4, ptr %6) #3
  %66 = load ptr, ptr %3, align 8
  %67 = getelementptr inbounds nuw %struct.SN_env, ptr %66, i32 0, i32 2
  %68 = load i32, ptr %67, align 4
  %69 = load ptr, ptr %3, align 8
  %70 = getelementptr inbounds nuw %struct.SN_env, ptr %69, i32 0, i32 1
  %71 = load i32, ptr %70, align 8
  %72 = sub i32 %68, %71
  store i32 %72, ptr %6, align 4
  %73 = load ptr, ptr %3, align 8
  %74 = getelementptr inbounds nuw %struct.SN_env, ptr %73, i32 0, i32 1
  %75 = load i32, ptr %74, align 8
  %76 = load ptr, ptr %3, align 8
  %77 = getelementptr inbounds nuw %struct.SN_env, ptr %76, i32 0, i32 3
  %78 = load i32, ptr %77, align 8
  %79 = icmp sle i32 %75, %78
  br i1 %79, label %93, label %80

80:                                               ; preds = %65
  %81 = load ptr, ptr %3, align 8
  %82 = getelementptr inbounds nuw %struct.SN_env, ptr %81, i32 0, i32 0
  %83 = load ptr, ptr %82, align 8
  %84 = load ptr, ptr %3, align 8
  %85 = getelementptr inbounds nuw %struct.SN_env, ptr %84, i32 0, i32 1
  %86 = load i32, ptr %85, align 8
  %87 = sub i32 %86, 1
  %88 = sext i32 %87 to i64
  %89 = getelementptr inbounds i8, ptr %83, i64 %88
  %90 = load i8, ptr %89, align 1
  %91 = zext i8 %90 to i32
  %92 = icmp ne i32 %91, 193
  br i1 %92, label %93, label %94

93:                                               ; preds = %80, %65
  br label %99

94:                                               ; preds = %80
  %95 = load ptr, ptr %3, align 8
  %96 = getelementptr inbounds nuw %struct.SN_env, ptr %95, i32 0, i32 1
  %97 = load i32, ptr %96, align 8
  %98 = add i32 %97, -1
  store i32 %98, ptr %96, align 8
  store i32 4, ptr %5, align 4
  br label %133

99:                                               ; preds = %93
  %100 = load ptr, ptr %3, align 8
  %101 = getelementptr inbounds nuw %struct.SN_env, ptr %100, i32 0, i32 2
  %102 = load i32, ptr %101, align 4
  %103 = load i32, ptr %6, align 4
  %104 = sub i32 %102, %103
  %105 = load ptr, ptr %3, align 8
  %106 = getelementptr inbounds nuw %struct.SN_env, ptr %105, i32 0, i32 1
  store i32 %104, ptr %106, align 8
  %107 = load ptr, ptr %3, align 8
  %108 = getelementptr inbounds nuw %struct.SN_env, ptr %107, i32 0, i32 1
  %109 = load i32, ptr %108, align 8
  %110 = load ptr, ptr %3, align 8
  %111 = getelementptr inbounds nuw %struct.SN_env, ptr %110, i32 0, i32 3
  %112 = load i32, ptr %111, align 8
  %113 = icmp sle i32 %109, %112
  br i1 %113, label %127, label %114

114:                                              ; preds = %99
  %115 = load ptr, ptr %3, align 8
  %116 = getelementptr inbounds nuw %struct.SN_env, ptr %115, i32 0, i32 0
  %117 = load ptr, ptr %116, align 8
  %118 = load ptr, ptr %3, align 8
  %119 = getelementptr inbounds nuw %struct.SN_env, ptr %118, i32 0, i32 1
  %120 = load i32, ptr %119, align 8
  %121 = sub i32 %120, 1
  %122 = sext i32 %121 to i64
  %123 = getelementptr inbounds i8, ptr %117, i64 %122
  %124 = load i8, ptr %123, align 1
  %125 = zext i8 %124 to i32
  %126 = icmp ne i32 %125, 209
  br i1 %126, label %127, label %128

127:                                              ; preds = %114, %99
  store i32 0, ptr %2, align 4
  store i32 1, ptr %5, align 4
  br label %133

128:                                              ; preds = %114
  %129 = load ptr, ptr %3, align 8
  %130 = getelementptr inbounds nuw %struct.SN_env, ptr %129, i32 0, i32 1
  %131 = load i32, ptr %130, align 8
  %132 = add i32 %131, -1
  store i32 %132, ptr %130, align 8
  store i32 0, ptr %5, align 4
  br label %133

133:                                              ; preds = %94, %128, %127
  call void @llvm.lifetime.end.p0(i64 4, ptr %6) #3
  %134 = load i32, ptr %5, align 4
  switch i32 %134, label %159 [
    i32 0, label %135
    i32 4, label %136
  ]

135:                                              ; preds = %133
  br label %136

136:                                              ; preds = %135, %133
  call void @llvm.lifetime.start.p0(i64 4, ptr %7) #3
  %137 = load ptr, ptr %3, align 8
  %138 = call i32 @slice_del(ptr noundef %137)
  store i32 %138, ptr %7, align 4
  %139 = load i32, ptr %7, align 4
  %140 = icmp slt i32 %139, 0
  br i1 %140, label %141, label %143

141:                                              ; preds = %136
  %142 = load i32, ptr %7, align 4
  store i32 %142, ptr %2, align 4
  store i32 1, ptr %5, align 4
  br label %144

143:                                              ; preds = %136
  store i32 0, ptr %5, align 4
  br label %144

144:                                              ; preds = %143, %141
  call void @llvm.lifetime.end.p0(i64 4, ptr %7) #3
  %145 = load i32, ptr %5, align 4
  switch i32 %145, label %159 [
    i32 0, label %146
  ]

146:                                              ; preds = %144
  br label %158

147:                                              ; preds = %58
  call void @llvm.lifetime.start.p0(i64 4, ptr %8) #3
  %148 = load ptr, ptr %3, align 8
  %149 = call i32 @slice_del(ptr noundef %148)
  store i32 %149, ptr %8, align 4
  %150 = load i32, ptr %8, align 4
  %151 = icmp slt i32 %150, 0
  br i1 %151, label %152, label %154

152:                                              ; preds = %147
  %153 = load i32, ptr %8, align 4
  store i32 %153, ptr %2, align 4
  store i32 1, ptr %5, align 4
  br label %155

154:                                              ; preds = %147
  store i32 0, ptr %5, align 4
  br label %155

155:                                              ; preds = %154, %152
  call void @llvm.lifetime.end.p0(i64 4, ptr %8) #3
  %156 = load i32, ptr %5, align 4
  switch i32 %156, label %159 [
    i32 0, label %157
  ]

157:                                              ; preds = %155
  br label %158

158:                                              ; preds = %58, %157, %146
  store i32 1, ptr %2, align 4
  store i32 1, ptr %5, align 4
  br label %159

159:                                              ; preds = %158, %155, %144, %133, %57, %51
  call void @llvm.lifetime.end.p0(i64 4, ptr %4) #3
  %160 = load i32, ptr %2, align 4
  ret i32 %160
}