; Function Attrs: nounwind uwtable
define internal fastcc range(i32 -2147483648, 2) i32 @r_verb(ptr noundef initializes((24, 28)) %0) unnamed_addr #0 {
  %2 = getelementptr inbounds nuw i8, ptr %0, i64 8
  %3 = load i32, ptr %2, align 8
  %4 = getelementptr inbounds nuw i8, ptr %0, i64 24
  store i32 %3, ptr %4, align 8
  %5 = getelementptr inbounds nuw i8, ptr %0, i64 16
  %6 = load i32, ptr %5, align 8
  %.not = icmp sgt i32 %3, %6
  br i1 %.not, label %7, label %.thread53

7:                                                ; preds = %1
  %8 = load ptr, ptr %0, align 8
  %9 = sext i32 %3 to i64
  %10 = getelementptr i8, ptr %8, i64 %9
  %11 = getelementptr i8, ptr %10, i64 -1
  %12 = load i8, ptr %11, align 1
  %13 = zext i8 %12 to i32
  %.mask = and i32 %13, 224
  %.not46 = icmp eq i32 %.mask, 192
  br i1 %.not46, label %14, label %.thread53

14:                                               ; preds = %7
  %15 = and i32 %13, 31
  %16 = shl nuw i32 1, %15
  %17 = and i32 %16, 51443235
  %.not47 = icmp eq i32 %17, 0
  br i1 %.not47, label %.thread53, label %18

18:                                               ; preds = %14
  %19 = tail call i32 @find_among_b(ptr noundef nonnull %0, ptr noundef nonnull @a_4, i32 noundef 46) #3
  %.not48 = icmp eq i32 %19, 0
  br i1 %.not48, label %.thread53, label %20

20:                                               ; preds = %18
  %21 = load i32, ptr %2, align 8
  %22 = getelementptr inbounds nuw i8, ptr %0, i64 20
  store i32 %21, ptr %22, align 4
  switch i32 %19, label %37 [
    i32 1, label %23
    i32 2, label %34
  ]

23:                                               ; preds = %20
  %24 = load i32, ptr %5, align 8
  %.not49 = icmp sgt i32 %21, %24
  br i1 %.not49, label %25, label %.thread53

25:                                               ; preds = %23
  %26 = load ptr, ptr %0, align 8
  %27 = add nsw i32 %21, -1
  %28 = sext i32 %27 to i64
  %29 = getelementptr inbounds i8, ptr %26, i64 %28
  %30 = load i8, ptr %29, align 1
  switch i8 %30, label %.thread53 [
    i8 -63, label %31
    i8 -47, label %31
  ]

31:                                               ; preds = %25, %25
  store i32 %27, ptr %2, align 8
  %32 = tail call i32 @slice_del(ptr noundef nonnull %0) #3
  %33 = icmp sgt i32 %32, -1
  br i1 %33, label %37, label %.thread53

34:                                               ; preds = %20
  %35 = tail call i32 @slice_del(ptr noundef nonnull %0) #3
  %36 = icmp sgt i32 %35, -1
  br i1 %36, label %37, label %.thread53

37:                                               ; preds = %34, %31, %20
  br label %.thread53

.thread53:                                        ; preds = %25, %23, %18, %1, %7, %14, %31, %34, %37
  %.0 = phi i32 [ 1, %37 ], [ %35, %34 ], [ %32, %31 ], [ 0, %14 ], [ 0, %7 ], [ 0, %1 ], [ 0, %18 ], [ 0, %23 ], [ 0, %25 ]
  ret i32 %.0
}